target datalayout = "e-m:e-p270:32:32-p271:32:32-p272:64:64-i64:64-i128:128-f80:128-n8:16:32:64-S128"
target triple = "x86_64-pc-linux-gnu"

%struct.tm = type { i32, i32, i32, i32, i32, i32, i32, i32, i32, i64, ptr }
%struct.asn1_string_st = type { i32, i32, ptr, i64 }

@.str.7 = private unnamed_addr constant [13 x i8] c"%y%m%d%H%M%S\00", align 1
@.str.8 = private unnamed_addr constant [13 x i8] c"%Y%m%d%H%M%S\00", align 1

; Function Attrs: nounwind uwtable
define ptr @cl_ASN1_GetTimeT(ptr noundef %0) #0 {
  %2 = alloca ptr, align 8
  %3 = alloca ptr, align 8
  %4 = alloca ptr, align 8
  %5 = alloca ptr, align 8
  %6 = alloca ptr, align 8
  %7 = alloca i64, align 8
  %8 = alloca %struct.tm, align 8
  %9 = alloca i32, align 4
  store ptr %0, ptr %3, align 8, !tbaa !47
  call void @llvm.lifetime.start.p0(i64 8, ptr %4) #8
  call void @llvm.lifetime.start.p0(i64 8, ptr %5) #8
  call void @llvm.lifetime.start.p0(i64 8, ptr %6) #8
  store ptr null, ptr %6, align 8, !tbaa !3
  call void @llvm.lifetime.start.p0(i64 8, ptr %7) #8
  call void @llvm.lifetime.start.p0(i64 56, ptr %8) #8
  %10 = load ptr, ptr %3, align 8, !tbaa !47
  %11 = icmp ne ptr %10, null
  br i1 %11, label %12, label %17

12:                                               ; preds = %1
  %13 = load ptr, ptr %3, align 8, !tbaa !47
  %14 = getelementptr inbounds nuw %struct.asn1_string_st, ptr %13, i32 0, i32 2
  %15 = load ptr, ptr %14, align 8, !tbaa !49
  %16 = icmp ne ptr %15, null
  br i1 %16, label %18, label %17

17:                                               ; preds = %12, %1
  store ptr null, ptr %2, align 8
  store i32 1, ptr %9, align 4
  br label %97

18:                                               ; preds = %12
  %19 = load ptr, ptr %3, align 8, !tbaa !47
  %20 = getelementptr inbounds nuw %struct.asn1_string_st, ptr %19, i32 0, i32 2
  %21 = load ptr, ptr %20, align 8, !tbaa !49
  store ptr %21, ptr %5, align 8, !tbaa !3
  %22 = load ptr, ptr %5, align 8, !tbaa !3
  %23 = call i64 @strlen(ptr noundef %22) #11
  %24 = icmp ult i64 %23, 12
  br i1 %24, label %25, label %26

25:                                               ; preds = %18
  store ptr null, ptr %2, align 8
  store i32 1, ptr %9, align 4
  br label %97

26:                                               ; preds = %18
  %27 = call noalias ptr @calloc(i64 noundef 1, i64 noundef 56) #10
  store ptr %27, ptr %4, align 8, !tbaa !51
  %28 = load ptr, ptr %4, align 8, !tbaa !51
  %29 = icmp ne ptr %28, null
  br i1 %29, label %31, label %30

30:                                               ; preds = %26
  store ptr null, ptr %2, align 8
  store i32 1, ptr %9, align 4
  br label %97

31:                                               ; preds = %26
  %32 = load ptr, ptr %3, align 8, !tbaa !47
  %33 = getelementptr inbounds nuw %struct.asn1_string_st, ptr %32, i32 0, i32 1
  %34 = load i32, ptr %33, align 4, !tbaa !53
  %35 = icmp eq i32 %34, 23
  br i1 %35, label %36, label %53

36:                                               ; preds = %31
  store ptr @.str.7, ptr %6, align 8, !tbaa !3
  %37 = load ptr, ptr %5, align 8, !tbaa !3
  %38 = getelementptr inbounds i8, ptr %37, i64 3
  %39 = load i8, ptr %38, align 1, !tbaa !36
  %40 = sext i8 %39 to i32
  %41 = icmp eq i32 %40, 48
  br i1 %41, label %42, label %47

42:                                               ; preds = %36
  %43 = load ptr, ptr %5, align 8, !tbaa !3
  %44 = getelementptr inbounds i8, ptr %43, i64 2
  store i8 48, ptr %44, align 1, !tbaa !36
  %45 = load ptr, ptr %5, align 8, !tbaa !3
  %46 = getelementptr inbounds i8, ptr %45, i64 3
  store i8 57, ptr %46, align 1, !tbaa !36
  br label %52

47:                                               ; preds = %36
  %48 = load ptr, ptr %5, align 8, !tbaa !3
  %49 = getelementptr inbounds i8, ptr %48, i64 3
  %50 = load i8, ptr %49, align 1, !tbaa !36
  %51 = add i8 %50, -1
  store i8 %51, ptr %49, align 1, !tbaa !36
  br label %52

52:                                               ; preds = %47, %42
  br label %76

53:                                               ; preds = %31
  %54 = load ptr, ptr %3, align 8, !tbaa !47
  %55 = getelementptr inbounds nuw %struct.asn1_string_st, ptr %54, i32 0, i32 1
  %56 = load i32, ptr %55, align 4, !tbaa !53
  %57 = icmp eq i32 %56, 24
  br i1 %57, label %58, label %75

58:                                               ; preds = %53
  store ptr @.str.8, ptr %6, align 8, !tbaa !3
  %59 = load ptr, ptr %5, align 8, !tbaa !3
  %60 = getelementptr inbounds i8, ptr %59, i64 5
  %61 = load i8, ptr %60, align 1, !tbaa !36
  %62 = sext i8 %61 to i32
  %63 = icmp eq i32 %62, 48
  br i1 %63, label %64, label %69

64:                                               ; preds = %58
  %65 = load ptr, ptr %5, align 8, !tbaa !3
  %66 = getelementptr inbounds i8, ptr %65, i64 4
  store i8 48, ptr %66, align 1, !tbaa !36
  %67 = load ptr, ptr %5, align 8, !tbaa !3
  %68 = getelementptr inbounds i8, ptr %67, i64 5
  store i8 57, ptr %68, align 1, !tbaa !36
  br label %74

69:                                               ; preds = %58
  %70 = load ptr, ptr %5, align 8, !tbaa !3
  %71 = getelementptr inbounds i8, ptr %70, i64 5
  %72 = load i8, ptr %71, align 1, !tbaa !36
  %73 = add i8 %72, -1
  store i8 %73, ptr %71, align 1, !tbaa !36
  br label %74

74:                                               ; preds = %69, %64
  br label %75

75:                                               ; preds = %74, %53
  br label %76

76:                                               ; preds = %75, %52
  %77 = load ptr, ptr %6, align 8, !tbaa !3
  %78 = icmp ne ptr %77, null
  br i1 %78, label %81, label %79

79:                                               ; preds = %76
  %80 = load ptr, ptr %4, align 8, !tbaa !51
  call void @free(ptr noundef %80) #8
  store ptr null, ptr %2, align 8
  store i32 1, ptr %9, align 4
  br label %97

81:                                               ; preds = %76
  %82 = load ptr, ptr %5, align 8, !tbaa !3
  %83 = load ptr, ptr %6, align 8, !tbaa !3
  %84 = load ptr, ptr %4, align 8, !tbaa !51
  %85 = call ptr @strptime(ptr noundef %82, ptr noundef %83, ptr noundef %84) #8
  %86 = icmp ne ptr %85, null
  br i1 %86, label %89, label %87

87:                                               ; preds = %81
  %88 = load ptr, ptr %4, align 8, !tbaa !51
  call void @free(ptr noundef %88) #8
  store ptr null, ptr %2, align 8
  store i32 1, ptr %9, align 4
  br label %97

89:                                               ; preds = %81
  %90 = call i64 @time(ptr noundef null) #8
  store i64 %90, ptr %7, align 8, !tbaa !9
  %91 = call ptr @localtime_r(ptr noundef %7, ptr noundef %8) #8
  %92 = getelementptr inbounds nuw %struct.tm, ptr %8, i32 0, i32 8
  %93 = load i32, ptr %92, align 8, !tbaa !54
  %94 = load ptr, ptr %4, align 8, !tbaa !51
  %95 = getelementptr inbounds nuw %struct.tm, ptr %94, i32 0, i32 8
  store i32 %93, ptr %95, align 8, !tbaa !54
  %96 = load ptr, ptr %4, align 8, !tbaa !51
  store ptr %96, ptr %2, align 8
  store i32 1, ptr %9, align 4
  br label %97

97:                                               ; preds = %89, %87, %79, %30, %25, %17
  call void @llvm.lifetime.end.p0(i64 56, ptr %8) #8
  call void @llvm.lifetime.end.p0(i64 8, ptr %7) #8
  call void @llvm.lifetime.end.p0(i64 8, ptr %6) #8
  call void @llvm.lifetime.end.p0(i64 8, ptr %5) #8
  call void @llvm.lifetime.end.p0(i64 8, ptr %4) #8
  %98 = load ptr, ptr %2, align 8
  ret ptr %98
}